target datalayout = "e-m:e-p270:32:32-p271:32:32-p272:64:64-i64:64-i128:128-f80:128-n8:16:32:64-S128"
target triple = "x86_64-pc-linux-gnu"

%struct.except_id_t = type { i64, i64 }
%struct._asn1_ctx_t = type { i32, i32, i8, ptr, ptr, ptr, ptr, ptr, %struct.anon.0, %struct.anon.3, %struct.anon.4, ptr }
%struct.anon.0 = type { i32, i8, i8, i8, ptr, ptr, i32, i32, ptr, ptr, ptr, %union.anon }
%union.anon = type { %struct.anon.1 }
%struct.anon.1 = type { ptr }
%struct.anon.3 = type { ptr, ptr, ptr }
%struct.anon.4 = type { i32, i8, ptr, i32, i32, ptr, ptr, ptr, %union.anon.5 }
%union.anon.5 = type { %struct.anon.6 }
%struct.anon.6 = type { ptr }
%struct.except_stacknode = type { ptr, i32, %union.anon.8 }
%union.anon.8 = type { ptr }
%struct.except_catch = type { ptr, i64, %struct.except_t, [1 x %struct.__jmp_buf_tag] }
%struct.except_t = type { %struct.except_id_t, ptr, ptr }
%struct.__jmp_buf_tag = type { [8 x i64], i32, %struct.__sigset_t }
%struct.__sigset_t = type { [16 x i64] }

@ett_s1ap_UE_RLF_Report_Container = internal global i32 0, align 4
@g_s1ap_dissect_container = internal global i8 1, align 1
@dissect_s1ap_T_uERLFReportContainer.catch_spec = internal constant [1 x %struct.except_id_t] [%struct.except_id_t { i64 1, i64 0 }], align 16

; Function Attrs: null_pointer_is_valid sspstrong uwtable
define internal i32 @dissect_s1ap_T_uERLFReportContainer(ptr noundef %0, i32 noundef %1, ptr noundef %2, ptr noundef %3, i32 noundef %4) #0 {
  %6 = alloca i32, align 4
  %7 = alloca ptr, align 8
  %8 = alloca i32, align 4
  %9 = alloca ptr, align 8
  %10 = alloca ptr, align 8
  %11 = alloca i32, align 4
  %12 = alloca ptr, align 8
  %13 = alloca ptr, align 8
  %14 = alloca i32, align 4
  %15 = alloca i32, align 4
  %16 = alloca ptr, align 8
  %17 = alloca i32, align 4
  %18 = alloca %struct.except_stacknode, align 8
  %19 = alloca %struct.except_catch, align 8
  store ptr %0, ptr %7, align 8
  store i32 %1, ptr %8, align 4
  store ptr %2, ptr %9, align 8
  store ptr %3, ptr %10, align 8
  store i32 %4, ptr %11, align 4
  call void @llvm.lifetime.start.p0(i64 8, ptr %12) #8
  call void @llvm.lifetime.start.p0(i64 8, ptr %13) #8
  %20 = load ptr, ptr %7, align 8
  %21 = load i32, ptr %8, align 4
  %22 = load ptr, ptr %9, align 8
  %23 = load ptr, ptr %10, align 8
  %24 = load i32, ptr %11, align 4
  %25 = call i32 @dissect_per_octet_string(ptr noundef %20, i32 noundef %21, ptr noundef %22, ptr noundef %23, i32 noundef %24, i32 noundef -1, i32 noundef -1, i1 noundef zeroext false, ptr noundef %12)
  store i32 %25, ptr %8, align 4
  %26 = load ptr, ptr %12, align 8
  %27 = icmp ne ptr %26, null
  br i1 %27, label %30, label %28

28:                                               ; preds = %5
  %29 = load i32, ptr %8, align 4
  store i32 %29, ptr %6, align 4
  store i32 1, ptr %14, align 4
  br label %139

30:                                               ; preds = %5
  %31 = load i8, ptr @g_s1ap_dissect_container, align 1, !range !8, !noundef !9
  %32 = trunc i8 %31 to i1
  br i1 %32, label %33, label %137

33:                                               ; preds = %30
  %34 = load ptr, ptr %9, align 8
  %35 = getelementptr inbounds nuw %struct._asn1_ctx_t, ptr %34, i32 0, i32 4
  %36 = load ptr, ptr %35, align 8
  %37 = load i32, ptr @ett_s1ap_UE_RLF_Report_Container, align 4
  %38 = call ptr @proto_item_add_subtree(ptr noundef %36, i32 noundef %37)
  store ptr %38, ptr %13, align 8
  call void @llvm.lifetime.start.p0(i64 4, ptr %15) #8
  %39 = load i32, ptr %8, align 4
  store volatile i32 %39, ptr %15, align 4
  call void @llvm.lifetime.start.p0(i64 8, ptr %16) #8
  call void @llvm.lifetime.start.p0(i64 4, ptr %17) #8
  store volatile i32 0, ptr %17, align 4
  call void @llvm.lifetime.start.p0(i64 24, ptr %18) #8
  call void @llvm.lifetime.start.p0(i64 248, ptr %19) #8
  call void @except_setup_try(ptr noundef %18, ptr noundef %19, ptr noundef @dissect_s1ap_T_uERLFReportContainer.catch_spec, i64 noundef 1)
  %40 = getelementptr inbounds nuw %struct.except_catch, ptr %19, i32 0, i32 3
  %41 = getelementptr inbounds [1 x %struct.__jmp_buf_tag], ptr %40, i64 0, i64 0
  %42 = call i32 @_setjmp(ptr noundef %41) #9
  %43 = icmp ne i32 %42, 0
  br i1 %43, label %44, label %46

44:                                               ; preds = %33
  %45 = getelementptr inbounds nuw %struct.except_catch, ptr %19, i32 0, i32 2
  store volatile ptr %45, ptr %16, align 8
  br label %47

46:                                               ; preds = %33
  store volatile ptr null, ptr %16, align 8
  br label %47

47:                                               ; preds = %46, %44
  %48 = load volatile i32, ptr %17, align 4
  %49 = and i32 %48, 1
  %50 = icmp ne i32 %49, 0
  br i1 %50, label %51, label %54

51:                                               ; preds = %47
  %52 = load volatile i32, ptr %17, align 4
  %53 = or i32 %52, 2
  store volatile i32 %53, ptr %17, align 4
  br label %54

54:                                               ; preds = %51, %47
  %55 = load volatile i32, ptr %17, align 4
  %56 = and i32 %55, -2
  store volatile i32 %56, ptr %17, align 4
  %57 = load volatile i32, ptr %17, align 4
  %58 = icmp eq i32 %57, 0
  br i1 %58, label %59, label %69

59:                                               ; preds = %54
  %60 = load volatile ptr, ptr %16, align 8
  %61 = icmp eq ptr %60, null
  br i1 %61, label %62, label %69

62:                                               ; preds = %59
  %63 = load ptr, ptr %12, align 8
  %64 = load ptr, ptr %9, align 8
  %65 = getelementptr inbounds nuw %struct._asn1_ctx_t, ptr %64, i32 0, i32 3
  %66 = load ptr, ptr %65, align 8
  %67 = load ptr, ptr %13, align 8
  %68 = call i32 @dissect_lte_rrc_RLF_Report_r9_PDU(ptr noundef %63, ptr noundef %66, ptr noundef %67, ptr noundef null)
  br label %69

69:                                               ; preds = %62, %59, %54
  %70 = load volatile i32, ptr %17, align 4
  %71 = icmp eq i32 %70, 0
  br i1 %71, label %72, label %122

72:                                               ; preds = %69
  %73 = load volatile ptr, ptr %16, align 8
  %74 = icmp ne ptr %73, null
  br i1 %74, label %75, label %122

75:                                               ; preds = %72
  %76 = load volatile ptr, ptr %16, align 8
  %77 = getelementptr inbounds nuw %struct.except_t, ptr %76, i32 0, i32 0
  %78 = getelementptr inbounds nuw %struct.except_id_t, ptr %77, i32 0, i32 1
  %79 = load volatile i64, ptr %78, align 8
  %80 = icmp eq i64 %79, 1
  br i1 %80, label %105, label %81

81:                                               ; preds = %75
  %82 = load volatile ptr, ptr %16, align 8
  %83 = getelementptr inbounds nuw %struct.except_t, ptr %82, i32 0, i32 0
  %84 = getelementptr inbounds nuw %struct.except_id_t, ptr %83, i32 0, i32 1
  %85 = load volatile i64, ptr %84, align 8
  %86 = icmp eq i64 %85, 4
  br i1 %86, label %105, label %87

87:                                               ; preds = %81
  %88 = load volatile ptr, ptr %16, align 8
  %89 = getelementptr inbounds nuw %struct.except_t, ptr %88, i32 0, i32 0
  %90 = getelementptr inbounds nuw %struct.except_id_t, ptr %89, i32 0, i32 1
  %91 = load volatile i64, ptr %90, align 8
  %92 = icmp eq i64 %91, 3
  br i1 %92, label %105, label %93

93:                                               ; preds = %87
  %94 = load volatile ptr, ptr %16, align 8
  %95 = getelementptr inbounds nuw %struct.except_t, ptr %94, i32 0, i32 0
  %96 = getelementptr inbounds nuw %struct.except_id_t, ptr %95, i32 0, i32 1
  %97 = load volatile i64, ptr %96, align 8
  %98 = icmp eq i64 %97, 2
  br i1 %98, label %105, label %99

99:                                               ; preds = %93
  %100 = load volatile ptr, ptr %16, align 8
  %101 = getelementptr inbounds nuw %struct.except_t, ptr %100, i32 0, i32 0
  %102 = getelementptr inbounds nuw %struct.except_id_t, ptr %101, i32 0, i32 1
  %103 = load volatile i64, ptr %102, align 8
  %104 = icmp eq i64 %103, 7
  br i1 %104, label %105, label %122

105:                                              ; preds = %99, %93, %87, %81, %75
  %106 = load volatile i32, ptr %17, align 4
  %107 = or i32 %106, 1
  store volatile i32 %107, ptr %17, align 4
  %108 = icmp ne i32 %107, 0
  br i1 %108, label %109, label %122

109:                                              ; preds = %105
  %110 = load ptr, ptr %12, align 8
  %111 = load ptr, ptr %9, align 8
  %112 = getelementptr inbounds nuw %struct._asn1_ctx_t, ptr %111, i32 0, i32 3
  %113 = load ptr, ptr %112, align 8
  %114 = load ptr, ptr %13, align 8
  %115 = load volatile ptr, ptr %16, align 8
  %116 = getelementptr inbounds nuw %struct.except_t, ptr %115, i32 0, i32 0
  %117 = getelementptr inbounds nuw %struct.except_id_t, ptr %116, i32 0, i32 1
  %118 = load volatile i64, ptr %117, align 8
  %119 = load volatile ptr, ptr %16, align 8
  %120 = getelementptr inbounds nuw %struct.except_t, ptr %119, i32 0, i32 1
  %121 = load volatile ptr, ptr %120, align 8
  call void @show_exception(ptr noundef %110, ptr noundef %113, ptr noundef %114, i64 noundef %118, ptr noundef %121)
  br label %122

122:                                              ; preds = %109, %105, %99, %72, %69
  %123 = load volatile i32, ptr %17, align 4
  %124 = and i32 %123, 1
  %125 = icmp ne i32 %124, 0
  br i1 %125, label %131, label %126

126:                                              ; preds = %122
  %127 = load volatile ptr, ptr %16, align 8
  %128 = icmp ne ptr %127, null
  br i1 %128, label %129, label %131

129:                                              ; preds = %126
  %130 = load volatile ptr, ptr %16, align 8
  call void @except_rethrow(ptr noundef %130) #10
  unreachable

131:                                              ; preds = %126, %122
  %132 = getelementptr inbounds nuw %struct.except_catch, ptr %19, i32 0, i32 2
  %133 = getelementptr inbounds nuw %struct.except_t, ptr %132, i32 0, i32 2
  %134 = load volatile ptr, ptr %133, align 8
  call void @except_free(ptr noundef %134)
  %135 = call ptr @except_pop()
  call void @llvm.lifetime.end.p0(i64 248, ptr %19) #8
  call void @llvm.lifetime.end.p0(i64 24, ptr %18) #8
  call void @llvm.lifetime.end.p0(i64 4, ptr %17) #8
  call void @llvm.lifetime.end.p0(i64 8, ptr %16) #8
  %136 = load volatile i32, ptr %15, align 4
  store i32 %136, ptr %8, align 4
  call void @llvm.lifetime.end.p0(i64 4, ptr %15) #8
  br label %137

137:                                              ; preds = %131, %30
  %138 = load i32, ptr %8, align 4
  store i32 %138, ptr %6, align 4
  store i32 1, ptr %14, align 4
  br label %139

139:                                              ; preds = %137, %28
  call void @llvm.lifetime.end.p0(i64 8, ptr %13) #8
  call void @llvm.lifetime.end.p0(i64 8, ptr %12) #8
  %140 = load i32, ptr %6, align 4
  ret i32 %140
}