; Function Attrs: null_pointer_is_valid sspstrong uwtable
define internal i32 @dissect_s1ap_T_uERLFReportContainer(ptr noundef %0, i32 noundef %1, ptr noundef %2, ptr noundef %3, i32 noundef %4) #0 {
  %6 = alloca ptr, align 8
  %7 = alloca i32, align 4
  %8 = alloca ptr, align 8
  %9 = alloca i32, align 4
  %10 = alloca %struct.except_stacknode, align 8
  %11 = alloca %struct.except_catch, align 8
  call void @llvm.lifetime.start.p0(i64 8, ptr nonnull %6) #8
  %12 = call i32 @dissect_per_octet_string(ptr noundef %0, i32 noundef %1, ptr noundef %2, ptr noundef %3, i32 noundef %4, i32 noundef -1, i32 noundef -1, i1 noundef zeroext false, ptr noundef nonnull %6)
  %13 = load ptr, ptr %6, align 8
  %.not = icmp eq ptr %13, null
  br i1 %.not, label %78, label %14

14:                                               ; preds = %5
  %15 = load i8, ptr @g_s1ap_dissect_container, align 1, !range !8, !noundef !9
  %16 = trunc nuw i8 %15 to i1
  br i1 %16, label %17, label %78

17:                                               ; preds = %14
  %18 = getelementptr inbounds nuw i8, ptr %2, i64 24
  %19 = load ptr, ptr %18, align 8
  %20 = load i32, ptr @ett_s1ap_UE_RLF_Report_Container, align 4
  %21 = call ptr @proto_item_add_subtree(ptr noundef %19, i32 noundef %20)
  call void @llvm.lifetime.start.p0(i64 4, ptr nonnull %7)
  store volatile i32 %12, ptr %7, align 4
  call void @llvm.lifetime.start.p0(i64 8, ptr nonnull %8)
  call void @llvm.lifetime.start.p0(i64 4, ptr nonnull %9)
  store volatile i32 0, ptr %9, align 4
  call void @llvm.lifetime.start.p0(i64 24, ptr nonnull %10) #8
  call void @llvm.lifetime.start.p0(i64 248, ptr nonnull %11) #8
  call void @except_setup_try(ptr noundef nonnull %10, ptr noundef nonnull %11, ptr noundef nonnull @dissect_s1ap_T_uERLFReportContainer.catch_spec, i64 noundef 1)
  %22 = getelementptr inbounds nuw i8, ptr %11, i64 48
  %23 = call i32 @_setjmp(ptr noundef nonnull %22) #10
  %.not33 = icmp eq i32 %23, 0
  %24 = getelementptr inbounds nuw i8, ptr %11, i64 16
  %.sink = select i1 %.not33, ptr null, ptr %24
  store volatile ptr %.sink, ptr %8, align 8
  %.0..0..0..0. = load volatile i32, ptr %9, align 4
  %25 = and i32 %.0..0..0..0., 1
  %.not34 = icmp eq i32 %25, 0
  br i1 %.not34, label %28, label %26

26:                                               ; preds = %17
  %.0..0..0..0.1 = load volatile i32, ptr %9, align 4
  %27 = or i32 %.0..0..0..0.1, 2
  store volatile i32 %27, ptr %9, align 4
  br label %28

28:                                               ; preds = %26, %17
  %.0..0..0..0.2 = load volatile i32, ptr %9, align 4
  %29 = and i32 %.0..0..0..0.2, -2
  store volatile i32 %29, ptr %9, align 4
  %.0..0..0..0.3 = load volatile i32, ptr %9, align 4
  %30 = icmp eq i32 %.0..0..0..0.3, 0
  br i1 %30, label %31, label %38

31:                                               ; preds = %28
  %.0..0..0..0.7 = load volatile ptr, ptr %8, align 8
  %32 = icmp eq ptr %.0..0..0..0.7, null
  br i1 %32, label %33, label %38

33:                                               ; preds = %31
  %34 = load ptr, ptr %6, align 8
  %35 = getelementptr inbounds nuw i8, ptr %2, i64 16
  %36 = load ptr, ptr %35, align 8
  %37 = call i32 @dissect_lte_rrc_RLF_Report_r9_PDU(ptr noundef %34, ptr noundef %36, ptr noundef %21, ptr noundef null)
  br label %38

38:                                               ; preds = %33, %31, %28
  %.0..0..0..0.4 = load volatile i32, ptr %9, align 4
  %39 = icmp eq i32 %.0..0..0..0.4, 0
  br i1 %39, label %40, label %70

40:                                               ; preds = %38
  %.0..0..0..0.8 = load volatile ptr, ptr %8, align 8
  %.not35 = icmp eq ptr %.0..0..0..0.8, null
  br i1 %.not35, label %70, label %41

41:                                               ; preds = %40
  %.0..0..0..0.9 = load volatile ptr, ptr %8, align 8
  %42 = getelementptr inbounds nuw i8, ptr %.0..0..0..0.9, i64 8
  %43 = load volatile i64, ptr %42, align 8
  %44 = icmp eq i64 %43, 1
  br i1 %44, label %61, label %45

45:                                               ; preds = %41
  %.0..0..0..0.10 = load volatile ptr, ptr %8, align 8
  %46 = getelementptr inbounds nuw i8, ptr %.0..0..0..0.10, i64 8
  %47 = load volatile i64, ptr %46, align 8
  %48 = icmp eq i64 %47, 4
  br i1 %48, label %61, label %49

49:                                               ; preds = %45
  %.0..0..0..0.11 = load volatile ptr, ptr %8, align 8
  %50 = getelementptr inbounds nuw i8, ptr %.0..0..0..0.11, i64 8
  %51 = load volatile i64, ptr %50, align 8
  %52 = icmp eq i64 %51, 3
  br i1 %52, label %61, label %53

53:                                               ; preds = %49
  %.0..0..0..0.12 = load volatile ptr, ptr %8, align 8
  %54 = getelementptr inbounds nuw i8, ptr %.0..0..0..0.12, i64 8
  %55 = load volatile i64, ptr %54, align 8
  %56 = icmp eq i64 %55, 2
  br i1 %56, label %61, label %57

57:                                               ; preds = %53
  %.0..0..0..0.13 = load volatile ptr, ptr %8, align 8
  %58 = getelementptr inbounds nuw i8, ptr %.0..0..0..0.13, i64 8
  %59 = load volatile i64, ptr %58, align 8
  %60 = icmp eq i64 %59, 7
  br i1 %60, label %61, label %70

61:                                               ; preds = %57, %53, %49, %45, %41
  %.0..0..0..0.5 = load volatile i32, ptr %9, align 4
  %62 = or i32 %.0..0..0..0.5, 1
  store volatile i32 %62, ptr %9, align 4
  %63 = load ptr, ptr %6, align 8
  %64 = getelementptr inbounds nuw i8, ptr %2, i64 16
  %65 = load ptr, ptr %64, align 8
  %.0..0..0..0.14 = load volatile ptr, ptr %8, align 8
  %66 = getelementptr inbounds nuw i8, ptr %.0..0..0..0.14, i64 8
  %67 = load volatile i64, ptr %66, align 8
  %.0..0..0..0.15 = load volatile ptr, ptr %8, align 8
  %68 = getelementptr inbounds nuw i8, ptr %.0..0..0..0.15, i64 16
  %69 = load volatile ptr, ptr %68, align 8
  call void @show_exception(ptr noundef %63, ptr noundef %65, ptr noundef %21, i64 noundef %67, ptr noundef %69)
  br label %70

70:                                               ; preds = %61, %57, %40, %38
  %.0..0..0..0.6 = load volatile i32, ptr %9, align 4
  %71 = and i32 %.0..0..0..0.6, 1
  %.not36 = icmp eq i32 %71, 0
  br i1 %.not36, label %72, label %74

72:                                               ; preds = %70
  %.0..0..0..0.16 = load volatile ptr, ptr %8, align 8
  %.not37 = icmp eq ptr %.0..0..0..0.16, null
  br i1 %.not37, label %74, label %73

73:                                               ; preds = %72
  %.0..0..0..0.17 = load volatile ptr, ptr %8, align 8
  call void @except_rethrow(ptr noundef %.0..0..0..0.17) #11
  unreachable

74:                                               ; preds = %72, %70
  %75 = getelementptr inbounds nuw i8, ptr %11, i64 40
  %76 = load volatile ptr, ptr %75, align 8
  call void @except_free(ptr noundef %76)
  %77 = call ptr @except_pop()
  call void @llvm.lifetime.end.p0(i64 248, ptr nonnull %11) #8
  call void @llvm.lifetime.end.p0(i64 24, ptr nonnull %10) #8
  call void @llvm.lifetime.end.p0(i64 4, ptr nonnull %9)
  call void @llvm.lifetime.end.p0(i64 8, ptr nonnull %8)
  %.0..0..0..0.18 = load volatile i32, ptr %7, align 4
  call void @llvm.lifetime.end.p0(i64 4, ptr nonnull %7)
  br label %78

78:                                               ; preds = %14, %74, %5
  %.0 = phi i32 [ %12, %5 ], [ %.0..0..0..0.18, %74 ], [ %12, %14 ]
  call void @llvm.lifetime.end.p0(i64 8, ptr nonnull %6) #8
  ret i32 %.0
}